(dp0
S'show_imports'
p1
I0
sS'prj_name'
p2
S'Batma 2D Api'
p3
sS'docformat'
p4
S'restructuredtext'
p5
sS'inheritance'
p6
S'included'
p7
sS'help'
p8
NsS'modules'
p9
(VC:/Users/Renato/Dev/batma/batma/__init__.py
p10
VC:/Users/Renato/Dev/batma/batma/colors.py
p11
VC:/Users/Renato/Dev/batma/batma/engine.py
p12
VC:/Users/Renato/Dev/batma/batma/input.py
p13
VC:/Users/Renato/Dev/batma/batma/maps.py
p14
VC:/Users/Renato/Dev/batma/batma/resource.py
p15
VC:/Users/Renato/Dev/batma/batma/sprite.py
p16
VC:/Users/Renato/Dev/batma/batma/text.py
p17
tp18
sS'private'
p19
I1
sS'prj_url'
p20
S'http://renatopp.com/batma'
p21
sS'introspect_or_parse'
p22
S'introspect'
p23
sS'frames'
p24
I1
sS'css'
p25
S'white'
p26
sS'target'
p27
S'C:/Users/Renato/Dev/batma/docs/api'
p28
s.